target datalayout = "e-m:e-p270:32:32-p271:32:32-p272:64:64-i64:64-i128:128-f80:128-n8:16:32:64-S128"
target triple = "x86_64-pc-linux-gnu"

%struct.blk_SHA256_CTX = type { [8 x i32], i64, i32, [64 x i8] }

; Function Attrs: nounwind uwtable
define dso_local void @blk_SHA256_Init(ptr noundef %0) #0 {
  %2 = alloca ptr, align 8
  store ptr %0, ptr %2, align 8, !tbaa !4
  %3 = load ptr, ptr %2, align 8, !tbaa !4
  %4 = getelementptr inbounds nuw %struct.blk_SHA256_CTX, ptr %3, i32 0, i32 2
  store i32 0, ptr %4, align 8, !tbaa !9
  %5 = load ptr, ptr %2, align 8, !tbaa !4
  %6 = getelementptr inbounds nuw %struct.blk_SHA256_CTX, ptr %5, i32 0, i32 1
  store i64 0, ptr %6, align 8, !tbaa !13
  %7 = load ptr, ptr %2, align 8, !tbaa !4
  %8 = getelementptr inbounds nuw %struct.blk_SHA256_CTX, ptr %7, i32 0, i32 0
  %9 = getelementptr inbounds [8 x i32], ptr %8, i64 0, i64 0
  store i32 1779033703, ptr %9, align 8, !tbaa !14
  %10 = load ptr, ptr %2, align 8, !tbaa !4
  %11 = getelementptr inbounds nuw %struct.blk_SHA256_CTX, ptr %10, i32 0, i32 0
  %12 = getelementptr inbounds [8 x i32], ptr %11, i64 0, i64 1
  store i32 -1150833019, ptr %12, align 4, !tbaa !14
  %13 = load ptr, ptr %2, align 8, !tbaa !4
  %14 = getelementptr inbounds nuw %struct.blk_SHA256_CTX, ptr %13, i32 0, i32 0
  %15 = getelementptr inbounds [8 x i32], ptr %14, i64 0, i64 2
  store i32 1013904242, ptr %15, align 8, !tbaa !14
  %16 = load ptr, ptr %2, align 8, !tbaa !4
  %17 = getelementptr inbounds nuw %struct.blk_SHA256_CTX, ptr %16, i32 0, i32 0
  %18 = getelementptr inbounds [8 x i32], ptr %17, i64 0, i64 3
  store i32 -1521486534, ptr %18, align 4, !tbaa !14
  %19 = load ptr, ptr %2, align 8, !tbaa !4
  %20 = getelementptr inbounds nuw %struct.blk_SHA256_CTX, ptr %19, i32 0, i32 0
  %21 = getelementptr inbounds [8 x i32], ptr %20, i64 0, i64 4
  store i32 1359893119, ptr %21, align 8, !tbaa !14
  %22 = load ptr, ptr %2, align 8, !tbaa !4
  %23 = getelementptr inbounds nuw %struct.blk_SHA256_CTX, ptr %22, i32 0, i32 0
  %24 = getelementptr inbounds [8 x i32], ptr %23, i64 0, i64 5
  store i32 -1694144372, ptr %24, align 4, !tbaa !14
  %25 = load ptr, ptr %2, align 8, !tbaa !4
  %26 = getelementptr inbounds nuw %struct.blk_SHA256_CTX, ptr %25, i32 0, i32 0
  %27 = getelementptr inbounds [8 x i32], ptr %26, i64 0, i64 6
  store i32 528734635, ptr %27, align 8, !tbaa !14
  %28 = load ptr, ptr %2, align 8, !tbaa !4
  %29 = getelementptr inbounds nuw %struct.blk_SHA256_CTX, ptr %28, i32 0, i32 0
  %30 = getelementptr inbounds [8 x i32], ptr %29, i64 0, i64 7
  store i32 1541459225, ptr %30, align 4, !tbaa !14
  ret void
}