; Function Attrs: mustprogress nofree norecurse nosync nounwind willreturn memory(argmem: write) uwtable
define dso_local void @blk_SHA256_Init(ptr noundef writeonly captures(none) initializes((0, 44)) %0) local_unnamed_addr #0 {
  %2 = getelementptr inbounds nuw i8, ptr %0, i64 40
  store i32 0, ptr %2, align 8, !tbaa !4
  %3 = getelementptr inbounds nuw i8, ptr %0, i64 32
  store i64 0, ptr %3, align 8, !tbaa !10
  store i32 1779033703, ptr %0, align 8, !tbaa !11
  %4 = getelementptr inbounds nuw i8, ptr %0, i64 4
  store i32 -1150833019, ptr %4, align 4, !tbaa !11
  %5 = getelementptr inbounds nuw i8, ptr %0, i64 8
  store i32 1013904242, ptr %5, align 8, !tbaa !11
  %6 = getelementptr inbounds nuw i8, ptr %0, i64 12
  store i32 -1521486534, ptr %6, align 4, !tbaa !11
  %7 = getelementptr inbounds nuw i8, ptr %0, i64 16
  store i32 1359893119, ptr %7, align 8, !tbaa !11
  %8 = getelementptr inbounds nuw i8, ptr %0, i64 20
  store i32 -1694144372, ptr %8, align 4, !tbaa !11
  %9 = getelementptr inbounds nuw i8, ptr %0, i64 24
  store i32 528734635, ptr %9, align 8, !tbaa !11
  %10 = getelementptr inbounds nuw i8, ptr %0, i64 28
  store i32 1541459225, ptr %10, align 4, !tbaa !11
  ret void
}